target datalayout = "e-m:e-p270:32:32-p271:32:32-p272:64:64-i64:64-i128:128-f80:128-n8:16:32:64-S128"
target triple = "x86_64-pc-linux-gnu"

%struct.mbedtls_mpi = type { ptr, i16, i16 }

; Function Attrs: nounwind uwtable
define hidden i64 @mbedtls_mpi_lsb(ptr noundef %0) #0 {
  %2 = alloca i64, align 8
  %3 = alloca ptr, align 8
  %4 = alloca i64, align 8
  %5 = alloca i32, align 4
  store ptr %0, ptr %3, align 8, !tbaa !3
  call void @llvm.lifetime.start.p0(i64 8, ptr %4) #9
  store i64 0, ptr %4, align 8, !tbaa !15
  br label %6

6:                                                ; preds = %35, %1
  %7 = load i64, ptr %4, align 8, !tbaa !15
  %8 = load ptr, ptr %3, align 8, !tbaa !3
  %9 = getelementptr inbounds nuw %struct.mbedtls_mpi, ptr %8, i32 0, i32 2
  %10 = load i16, ptr %9, align 2, !tbaa !10
  %11 = zext i16 %10 to i64
  %12 = icmp ult i64 %7, %11
  br i1 %12, label %13, label %38

13:                                               ; preds = %6
  %14 = load ptr, ptr %3, align 8, !tbaa !3
  %15 = getelementptr inbounds nuw %struct.mbedtls_mpi, ptr %14, i32 0, i32 0
  %16 = load ptr, ptr %15, align 8, !tbaa !17
  %17 = load i64, ptr %4, align 8, !tbaa !15
  %18 = getelementptr inbounds nuw i64, ptr %16, i64 %17
  %19 = load i64, ptr %18, align 8, !tbaa !15
  %20 = icmp ne i64 %19, 0
  br i1 %20, label %21, label %34

21:                                               ; preds = %13
  %22 = load i64, ptr %4, align 8, !tbaa !15
  %23 = mul i64 %22, 64
  %24 = load ptr, ptr %3, align 8, !tbaa !3
  %25 = getelementptr inbounds nuw %struct.mbedtls_mpi, ptr %24, i32 0, i32 0
  %26 = load ptr, ptr %25, align 8, !tbaa !17
  %27 = load i64, ptr %4, align 8, !tbaa !15
  %28 = getelementptr inbounds nuw i64, ptr %26, i64 %27
  %29 = load i64, ptr %28, align 8, !tbaa !15
  %30 = call i64 @llvm.cttz.i64(i64 %29, i1 true)
  %31 = trunc i64 %30 to i32
  %32 = sext i32 %31 to i64
  %33 = add i64 %23, %32
  store i64 %33, ptr %2, align 8
  store i32 1, ptr %5, align 4
  br label %39

34:                                               ; preds = %13
  br label %35

35:                                               ; preds = %34
  %36 = load i64, ptr %4, align 8, !tbaa !15
  %37 = add i64 %36, 1
  store i64 %37, ptr %4, align 8, !tbaa !15
  br label %6, !llvm.loop !29

38:                                               ; preds = %6
  store i64 0, ptr %2, align 8
  store i32 1, ptr %5, align 4
  br label %39

39:                                               ; preds = %38, %21
  call void @llvm.lifetime.end.p0(i64 8, ptr %4) #9
  %40 = load i64, ptr %2, align 8
  ret i64 %40
}