; Function Attrs: nofree norecurse nosync nounwind memory(read, inaccessiblemem: none) uwtable
define hidden range(i64 0, 4194240) i64 @mbedtls_mpi_lsb(ptr noundef readonly captures(none) %0) local_unnamed_addr #9 {
  %2 = getelementptr inbounds nuw i8, ptr %0, i64 10
  %3 = load i16, ptr %2, align 2, !tbaa !3
  %4 = zext i16 %3 to i64
  %.not12 = icmp eq i16 %3, 0
  br i1 %.not12, label %.loopexit, label %.lr.ph

.lr.ph:                                           ; preds = %1
  %5 = load ptr, ptr %0, align 8, !tbaa !12
  br label %6

6:                                                ; preds = %.lr.ph, %13
  %.011 = phi i64 [ 0, %.lr.ph ], [ %14, %13 ]
  %7 = getelementptr inbounds nuw i64, ptr %5, i64 %.011
  %8 = load i64, ptr %7, align 8, !tbaa !17
  %.not = icmp eq i64 %8, 0
  br i1 %.not, label %13, label %9

9:                                                ; preds = %6
  %10 = shl nuw nsw i64 %.011, 6
  %11 = tail call range(i64 0, 65) i64 @llvm.cttz.i64(i64 %8, i1 true)
  %12 = or disjoint i64 %11, %10
  br label %.loopexit

13:                                               ; preds = %6
  %14 = add nuw nsw i64 %.011, 1
  %exitcond.not = icmp eq i64 %14, %4
  br i1 %exitcond.not, label %.loopexit, label %6, !llvm.loop !23

.loopexit:                                        ; preds = %13, %1, %9
  %.08 = phi i64 [ %12, %9 ], [ 0, %1 ], [ 0, %13 ]
  ret i64 %.08
}